; Function Attrs: mustprogress uwtable
define hidden void @_ZN19OpenColorIO_v2_5dev23GradingBSplineCurveImpl19setNumControlPointsEm(ptr noundef nonnull align 8 dereferenceable(56) %0, i64 noundef %1) unnamed_addr #0 align 2 personality ptr @__gxx_personality_v0 {
  %3 = alloca float, align 4
  %4 = getelementptr inbounds nuw i8, ptr %0, i64 8
  tail call void @_ZNSt6vectorIN19OpenColorIO_v2_5dev19GradingControlPointESaIS1_EE6resizeEm(ptr noundef nonnull align 8 dereferenceable(24) %4, i64 noundef %1)
  %5 = getelementptr inbounds nuw i8, ptr %0, i64 32
  call void @llvm.lifetime.start.p0(i64 4, ptr nonnull %3) #22
  store float 0.000000e+00, ptr %3, align 4, !tbaa !41
  %6 = getelementptr inbounds nuw i8, ptr %0, i64 40
  %7 = load ptr, ptr %6, align 8, !tbaa !43
  %8 = load ptr, ptr %5, align 8, !tbaa !37
  %9 = ptrtoint ptr %7 to i64
  %10 = ptrtoint ptr %8 to i64
  %11 = sub i64 %9, %10
  %12 = ashr exact i64 %11, 2
  %13 = icmp ugt i64 %1, %12
  br i1 %13, label %14, label %16

14:                                               ; preds = %2
  %15 = sub nuw i64 %1, %12
  call void @_ZNSt6vectorIfSaIfEE14_M_fill_insertEN9__gnu_cxx17__normal_iteratorIPfS1_EEmRKf(ptr noundef nonnull align 8 dereferenceable(24) %5, ptr %7, i64 noundef %15, ptr noundef nonnull align 4 dereferenceable(4) %3)
  br label %_ZNSt6vectorIfSaIfEE6resizeEmRKf.exit

16:                                               ; preds = %2
  %17 = icmp ult i64 %1, %12
  br i1 %17, label %18, label %_ZNSt6vectorIfSaIfEE6resizeEmRKf.exit

18:                                               ; preds = %16
  %19 = getelementptr inbounds nuw float, ptr %8, i64 %1
  %.not.i.i = icmp eq ptr %7, %19
  br i1 %.not.i.i, label %_ZNSt6vectorIfSaIfEE6resizeEmRKf.exit, label %20

20:                                               ; preds = %18
  store ptr %19, ptr %6, align 8, !tbaa !43
  br label %_ZNSt6vectorIfSaIfEE6resizeEmRKf.exit

_ZNSt6vectorIfSaIfEE6resizeEmRKf.exit:            ; preds = %14, %16, %18, %20
  call void @llvm.lifetime.end.p0(i64 4, ptr nonnull %3) #22
  ret void
}